target datalayout = "e-m:e-p270:32:32-p271:32:32-p272:64:64-i64:64-i128:128-f80:128-n8:16:32:64-S128"
target triple = "x86_64-pc-linux-gnu"

%struct.ossl_param_st = type { ptr, i32, ptr, i64, i64 }

@libctx = internal global ptr null, align 8
@opparam = internal global [2 x %struct.ossl_param_st] zeroinitializer, align 16
@.str.3 = private unnamed_addr constant [38 x i8] c"../openssl/test/evp_pkey_dhkem_test.c\00", align 1
@rctx = internal global [2 x ptr] zeroinitializer, align 16
@.str.74 = private unnamed_addr constant [2 x i8] c"0\00", align 1
@.str.133 = private unnamed_addr constant [5 x i8] c"X448\00", align 1
@.str.160 = private unnamed_addr constant [47 x i8] c"auth = EVP_PKEY_Q_keygen(libctx, NULL, \22X448\22)\00", align 1
@.str.161 = private unnamed_addr constant [73 x i8] c"EVP_PKEY_auth_encapsulate_init(rctx[TEST_KEYTYPE_X25519], auth, opparam)\00", align 1

; Function Attrs: nounwind uwtable
define internal i32 @test_ecx_auth_key_curve_mismatch() #0 {
  %1 = alloca i32, align 4
  %2 = alloca i32, align 4
  %3 = alloca ptr, align 8
  %4 = alloca i32, align 4
  call void @llvm.lifetime.start.p0(i64 4, ptr %2) #6
  store i32 0, ptr %2, align 4, !tbaa !10
  call void @llvm.lifetime.start.p0(i64 8, ptr %3) #6
  store ptr null, ptr %3, align 8, !tbaa !17
  %5 = load ptr, ptr @libctx, align 8, !tbaa !15
  %6 = call ptr (ptr, ptr, ptr, ...) @EVP_PKEY_Q_keygen(ptr noundef %5, ptr noundef null, ptr noundef @.str.133)
  store ptr %6, ptr %3, align 8, !tbaa !17
  %7 = call i32 @test_ptr(ptr noundef @.str.3, i32 noundef 760, ptr noundef @.str.160, ptr noundef %6)
  %8 = icmp ne i32 %7, 0
  br i1 %8, label %10, label %9

9:                                                ; preds = %0
  store i32 0, ptr %1, align 4
  store i32 1, ptr %4, align 4
  br label %17

10:                                               ; preds = %0
  %11 = load ptr, ptr getelementptr inbounds ([2 x ptr], ptr @rctx, i64 0, i64 1), align 8, !tbaa !19
  %12 = load ptr, ptr %3, align 8, !tbaa !17
  %13 = call i32 @EVP_PKEY_auth_encapsulate_init(ptr noundef %11, ptr noundef %12, ptr noundef @opparam)
  %14 = call i32 @test_int_eq(ptr noundef @.str.3, i32 noundef 764, ptr noundef @.str.161, ptr noundef @.str.74, i32 noundef %13, i32 noundef 0)
  store i32 %14, ptr %2, align 4, !tbaa !10
  %15 = load ptr, ptr %3, align 8, !tbaa !17
  call void @EVP_PKEY_free(ptr noundef %15)
  %16 = load i32, ptr %2, align 4, !tbaa !10
  store i32 %16, ptr %1, align 4
  store i32 1, ptr %4, align 4
  br label %17

17:                                               ; preds = %10, %9
  call void @llvm.lifetime.end.p0(i64 8, ptr %3) #6
  call void @llvm.lifetime.end.p0(i64 4, ptr %2) #6
  %18 = load i32, ptr %1, align 4
  ret i32 %18
}