; Function Attrs: nounwind uwtable
define internal i32 @test_ecx_auth_key_curve_mismatch() #0 {
  %1 = load ptr, ptr @libctx, align 8, !tbaa !15
  %2 = tail call ptr (ptr, ptr, ptr, ...) @EVP_PKEY_Q_keygen(ptr noundef %1, ptr noundef null, ptr noundef nonnull @.str.133) #5
  %3 = tail call i32 @test_ptr(ptr noundef nonnull @.str.3, i32 noundef 760, ptr noundef nonnull @.str.160, ptr noundef %2) #5
  %.not = icmp eq i32 %3, 0
  br i1 %.not, label %8, label %4

4:                                                ; preds = %0
  %5 = load ptr, ptr getelementptr inbounds nuw (i8, ptr @rctx, i64 8), align 8, !tbaa !19
  %6 = tail call i32 @EVP_PKEY_auth_encapsulate_init(ptr noundef %5, ptr noundef %2, ptr noundef nonnull @opparam) #5
  %7 = tail call i32 @test_int_eq(ptr noundef nonnull @.str.3, i32 noundef 764, ptr noundef nonnull @.str.161, ptr noundef nonnull @.str.74, i32 noundef %6, i32 noundef 0) #5
  tail call void @EVP_PKEY_free(ptr noundef %2) #5
  br label %8

8:                                                ; preds = %0, %4
  %.0 = phi i32 [ %7, %4 ], [ 0, %0 ]
  ret i32 %.0
}